target datalayout = "e-m:e-p270:32:32-p271:32:32-p272:64:64-i64:64-i128:128-f80:128-n8:16:32:64-S128"
target triple = "x86_64-pc-linux-gnu"

%struct.CVodeMemRec = type { ptr, double, ptr, ptr, i32, i32, double, double, ptr, i32, i32, ptr, ptr, i32, i32, ptr, i32, i32, double, double, ptr, i32, i32, i32, i32, ptr, ptr, ptr, i32, i32, ptr, ptr, ptr, i32, double, i32, i32, double, ptr, ptr, ptr, i32, ptr, ptr, i32, i32, i32, double, ptr, ptr, ptr, [13 x ptr], ptr, ptr, ptr, ptr, ptr, ptr, ptr, ptr, ptr, [13 x ptr], ptr, ptr, ptr, ptr, [13 x ptr], ptr, ptr, ptr, ptr, ptr, i32, [13 x ptr], ptr, ptr, ptr, ptr, ptr, i32, i32, double, i32, i32, i32, i32, i32, double, double, double, double, double, double, double, double, [14 x double], [6 x double], [13 x double], double, double, double, double, double, double, double, double, i32, double, double, i32, double, double, ptr, i32, i64, i32, i32, i32, double, double, double, double, double, double, double, double, double, double, double, double, i64, i32, i64, i64, i64, i64, i64, i64, i64, i64, i64, ptr, i64, i64, ptr, i64, i64, ptr, i64, i64, i64, i64, i64, i64, i32, double, double, double, i64, i64, i64, i64, i64, i64, ptr, i32, ptr, i32, ptr, i32, ptr, i32, i32, i64, i32, ptr, i32, ptr, ptr, ptr, ptr, ptr, ptr, i32, i32, ptr, ptr, ptr, ptr, ptr, i64, double, i32, i32, i64, double, double, double, i32, i32, double, i32, i32, i32, i32, i32, i32, i32, i32, i32, i32, i32, i32, i32, i32, i32, i32, ptr, i64, i32, [6 x [4 x double]], i32, i64, ptr, i32, ptr, ptr, double, double, double, ptr, ptr, ptr, double, double, i32, i32, i64, ptr, i32, ptr, i32, i32, [13 x double], ptr, ptr, ptr, i32, ptr, i32 }
%struct.CVadjMemRec = type { double, double, i32, i32, double, i32, double, ptr, i32, ptr, i32, ptr, i32, ptr, i64, i64, ptr, i64, i32, ptr, ptr, ptr, ptr, i32, i32, i32, i32, [13 x ptr], [13 x ptr], [13 x double], ptr, ptr }
%struct.CVdtpntMemRec = type { double, ptr }
%struct.CVhermiteDataMemRec = type { ptr, ptr, ptr, ptr }

@.str = private unnamed_addr constant [118 x i8] c"generated/home/dtcxzyw/WorkSpace/Projects/compilers/llvm-opt-benchmark/bench/sundials/sundials/src/cvodes/cvodea_io.c\00", align 1
@.str.1 = private unnamed_addr constant [26 x i8] c"cvode_mem = NULL illegal.\00", align 1
@.str.2 = private unnamed_addr constant [55 x i8] c"Illegal attempt to call before calling CVodeAdjMalloc.\00", align 1
@__func__.CVodeGetAdjDataPointHermite = private unnamed_addr constant [28 x i8] c"CVodeGetAdjDataPointHermite\00", align 1
@.str.4 = private unnamed_addr constant [62 x i8] c"This function cannot be called for the specified interp type.\00", align 1

; Function Attrs: nounwind uwtable
define i32 @CVodeGetAdjDataPointHermite(ptr noundef %0, i32 noundef %1, ptr noundef %2, ptr noundef %3, ptr noundef %4) #0 {
  %6 = alloca i32, align 4
  %7 = alloca ptr, align 8
  %8 = alloca i32, align 4
  %9 = alloca ptr, align 8
  %10 = alloca ptr, align 8
  %11 = alloca ptr, align 8
  %12 = alloca ptr, align 8
  %13 = alloca ptr, align 8
  %14 = alloca ptr, align 8
  %15 = alloca ptr, align 8
  store ptr %0, ptr %7, align 8
  store i32 %1, ptr %8, align 4
  store ptr %2, ptr %9, align 8
  store ptr %3, ptr %10, align 8
  store ptr %4, ptr %11, align 8
  %16 = load ptr, ptr %7, align 8
  %17 = icmp eq ptr %16, null
  br i1 %17, label %18, label %19

18:                                               ; preds = %5
  call void (ptr, i32, i32, ptr, ptr, ptr, ...) @cvProcessError(ptr noundef null, i32 noundef -21, i32 noundef 688, ptr noundef @__func__.CVodeGetAdjDataPointHermite, ptr noundef @.str, ptr noundef @.str.1)
  store i32 -21, ptr %6, align 4
  br label %72

19:                                               ; preds = %5
  %20 = load ptr, ptr %7, align 8
  store ptr %20, ptr %12, align 8
  %21 = load ptr, ptr %12, align 8
  %22 = getelementptr inbounds %struct.CVodeMemRec, ptr %21, i32 0, i32 249
  %23 = load i32, ptr %22, align 8
  %24 = icmp eq i32 %23, 0
  br i1 %24, label %25, label %27

25:                                               ; preds = %19
  %26 = load ptr, ptr %12, align 8
  call void (ptr, i32, i32, ptr, ptr, ptr, ...) @cvProcessError(ptr noundef %26, i32 noundef -101, i32 noundef 696, ptr noundef @__func__.CVodeGetAdjDataPointHermite, ptr noundef @.str, ptr noundef @.str.2)
  store i32 -101, ptr %6, align 4
  br label %72

27:                                               ; preds = %19
  %28 = load ptr, ptr %12, align 8
  %29 = getelementptr inbounds %struct.CVodeMemRec, ptr %28, i32 0, i32 248
  %30 = load ptr, ptr %29, align 8
  store ptr %30, ptr %13, align 8
  %31 = load ptr, ptr %13, align 8
  %32 = getelementptr inbounds %struct.CVadjMemRec, ptr %31, i32 0, i32 16
  %33 = load ptr, ptr %32, align 8
  store ptr %33, ptr %14, align 8
  %34 = load ptr, ptr %13, align 8
  %35 = getelementptr inbounds %struct.CVadjMemRec, ptr %34, i32 0, i32 18
  %36 = load i32, ptr %35, align 8
  %37 = icmp ne i32 %36, 1
  br i1 %37, label %38, label %40

38:                                               ; preds = %27
  %39 = load ptr, ptr %12, align 8
  call void (ptr, i32, i32, ptr, ptr, ptr, ...) @cvProcessError(ptr noundef %39, i32 noundef -22, i32 noundef 705, ptr noundef @__func__.CVodeGetAdjDataPointHermite, ptr noundef @.str, ptr noundef @.str.4)
  store i32 -22, ptr %6, align 4
  br label %72

40:                                               ; preds = %27
  %41 = load ptr, ptr %14, align 8
  %42 = load i32, ptr %8, align 4
  %43 = sext i32 %42 to i64
  %44 = getelementptr inbounds ptr, ptr %41, i64 %43
  %45 = load ptr, ptr %44, align 8
  %46 = getelementptr inbounds %struct.CVdtpntMemRec, ptr %45, i32 0, i32 0
  %47 = load double, ptr %46, align 8
  %48 = load ptr, ptr %9, align 8
  store double %47, ptr %48, align 8
  %49 = load ptr, ptr %14, align 8
  %50 = load i32, ptr %8, align 4
  %51 = sext i32 %50 to i64
  %52 = getelementptr inbounds ptr, ptr %49, i64 %51
  %53 = load ptr, ptr %52, align 8
  %54 = getelementptr inbounds %struct.CVdtpntMemRec, ptr %53, i32 0, i32 1
  %55 = load ptr, ptr %54, align 8
  store ptr %55, ptr %15, align 8
  %56 = load ptr, ptr %10, align 8
  %57 = icmp ne ptr %56, null
  br i1 %57, label %58, label %63

58:                                               ; preds = %40
  %59 = load ptr, ptr %15, align 8
  %60 = getelementptr inbounds %struct.CVhermiteDataMemRec, ptr %59, i32 0, i32 0
  %61 = load ptr, ptr %60, align 8
  %62 = load ptr, ptr %10, align 8
  call void @N_VScale(double noundef 1.000000e+00, ptr noundef %61, ptr noundef %62)
  br label %63

63:                                               ; preds = %58, %40
  %64 = load ptr, ptr %11, align 8
  %65 = icmp ne ptr %64, null
  br i1 %65, label %66, label %71

66:                                               ; preds = %63
  %67 = load ptr, ptr %15, align 8
  %68 = getelementptr inbounds %struct.CVhermiteDataMemRec, ptr %67, i32 0, i32 1
  %69 = load ptr, ptr %68, align 8
  %70 = load ptr, ptr %11, align 8
  call void @N_VScale(double noundef 1.000000e+00, ptr noundef %69, ptr noundef %70)
  br label %71

71:                                               ; preds = %66, %63
  store i32 0, ptr %6, align 4
  br label %72

72:                                               ; preds = %71, %38, %25, %18
  %73 = load i32, ptr %6, align 4
  ret i32 %73
}